; Function Attrs: mustprogress uwtable
define dso_local void @_ZN4Luau7CodeGen3A6418AssemblyBuilderA645fcmpzENS1_11RegisterA64E(ptr noundef nonnull align 8 dereferenceable(176) %0, i8 %1) local_unnamed_addr #0 align 2 {
  %3 = getelementptr inbounds nuw i8, ptr %0, i64 80
  %4 = load i8, ptr %3, align 8, !tbaa !14, !range !46, !noundef !47
  %5 = trunc nuw i8 %4 to i1
  br i1 %5, label %6, label %7

6:                                                ; preds = %2
  tail call void @_ZN4Luau7CodeGen3A6418AssemblyBuilderA643logEPKcNS1_11RegisterA64Eii(ptr noundef nonnull align 8 dereferenceable(176) %0, ptr noundef nonnull @.str.75, i8 %1, i32 noundef 0, i32 noundef 0)
  br label %7

7:                                                ; preds = %6, %2
  %8 = lshr i8 %1, 3
  %9 = zext nneg i8 %8 to i32
  %10 = shl nuw nsw i32 %9, 5
  %11 = or disjoint i32 %10, 509616136
  %12 = getelementptr inbounds nuw i8, ptr %0, i64 160
  %13 = load ptr, ptr %12, align 8, !tbaa !39
  %14 = getelementptr inbounds nuw i8, ptr %13, i64 4
  store ptr %14, ptr %12, align 8, !tbaa !39
  store i32 %11, ptr %13, align 4, !tbaa !48
  %15 = getelementptr inbounds nuw i8, ptr %0, i64 168
  %16 = load ptr, ptr %15, align 8, !tbaa !40
  %17 = icmp eq ptr %16, %14
  br i1 %17, label %18, label %_ZN4Luau7CodeGen3A6418AssemblyBuilderA649placeFCMPEPKcNS1_11RegisterA64ES5_hh.exit

18:                                               ; preds = %7
  tail call void @_ZN4Luau7CodeGen3A6418AssemblyBuilderA646extendEv(ptr noundef nonnull align 8 dereferenceable(176) %0)
  br label %_ZN4Luau7CodeGen3A6418AssemblyBuilderA649placeFCMPEPKcNS1_11RegisterA64ES5_hh.exit

_ZN4Luau7CodeGen3A6418AssemblyBuilderA649placeFCMPEPKcNS1_11RegisterA64ES5_hh.exit: ; preds = %7, %18
  ret void
}